; ModuleID = '56/428.c'
source_filename = "56/428.c"
target datalayout = "e-m:e-p270:32:32-p271:32:32-p272:64:64-i64:64-f80:128-n8:16:32:64-S128"
target triple = "x86_64-pc-linux-gnu"

@.str = private unnamed_addr constant [3 x i8] c"%d\00", align 1
@.str.1 = private unnamed_addr constant [4 x i8] c"%d\0A\00", align 1

; Function Attrs: noinline nounwind uwtable
define dso_local i32 @main(i32 %0, i8** %1) #0 {
  %3 = alloca i32, align 4
  %4 = alloca i32, align 4
  %5 = alloca i8**, align 8
  %6 = alloca i32, align 4
  %7 = alloca i32, align 4
  %8 = alloca i32, align 4
  %9 = alloca i32, align 4
  %10 = alloca i32, align 4
  %11 = alloca i32, align 4
  store i32 0, i32* %3, align 4
  store i32 %0, i32* %4, align 4
  store i8** %1, i8*** %5, align 8
  %12 = call i32 (i8*, ...) @__isoc99_scanf(i8* getelementptr inbounds ([3 x i8], [3 x i8]* @.str, i64 0, i64 0), i32* %11)
  %13 = load i32, i32* %11, align 4
  %14 = sdiv i32 %13, 10000
  store i32 %14, i32* %6, align 4
  %15 = load i32, i32* %11, align 4
  %16 = load i32, i32* %6, align 4
  %17 = mul nsw i32 10000, %16
  %18 = sub nsw i32 %15, %17
  %19 = sdiv i32 %18, 1000
  store i32 %19, i32* %7, align 4
  %20 = load i32, i32* %11, align 4
  %21 = load i32, i32* %6, align 4
  %22 = mul nsw i32 10000, %21
  %23 = sub nsw i32 %20, %22
  %24 = load i32, i32* %7, align 4
  %25 = mul nsw i32 1000, %24
  %26 = sub nsw i32 %23, %25
  %27 = sdiv i32 %26, 100
  store i32 %27, i32* %8, align 4
  %28 = load i32, i32* %11, align 4
  %29 = load i32, i32* %6, align 4
  %30 = mul nsw i32 10000, %29
  %31 = sub nsw i32 %28, %30
  %32 = load i32, i32* %7, align 4
  %33 = mul nsw i32 1000, %32
  %34 = sub nsw i32 %31, %33
  %35 = load i32, i32* %8, align 4
  %36 = mul nsw i32 100, %35
  %37 = sub nsw i32 %34, %36
  %38 = sdiv i32 %37, 10
  store i32 %38, i32* %9, align 4
  %39 = load i32, i32* %11, align 4
  %40 = load i32, i32* %6, align 4
  %41 = mul nsw i32 10000, %40
  %42 = sub nsw i32 %39, %41
  %43 = load i32, i32* %7, align 4
  %44 = mul nsw i32 1000, %43
  %45 = sub nsw i32 %42, %44
  %46 = load i32, i32* %8, align 4
  %47 = mul nsw i32 100, %46
  %48 = sub nsw i32 %45, %47
  %49 = load i32, i32* %9, align 4
  %50 = mul nsw i32 10, %49
  %51 = sub nsw i32 %48, %50
  store i32 %51, i32* %10, align 4
  %52 = load i32, i32* %6, align 4
  %53 = icmp sgt i32 %52, 0
  br i1 %53, label %54, label %69

54:                                               ; preds = %2
  %55 = load i32, i32* %10, align 4
  %56 = mul nsw i32 %55, 10000
  %57 = load i32, i32* %9, align 4
  %58 = mul nsw i32 %57, 1000
  %59 = add nsw i32 %56, %58
  %60 = load i32, i32* %8, align 4
  %61 = mul nsw i32 %60, 100
  %62 = add nsw i32 %59, %61
  %63 = load i32, i32* %7, align 4
  %64 = mul nsw i32 %63, 10
  %65 = add nsw i32 %62, %64
  %66 = load i32, i32* %6, align 4
  %67 = add nsw i32 %65, %66
  %68 = call i32 (i8*, ...) @printf(i8* getelementptr inbounds ([4 x i8], [4 x i8]* @.str.1, i64 0, i64 0), i32 %67)
  br label %111

69:                                               ; preds = %2
  %70 = load i32, i32* %7, align 4
  %71 = icmp sgt i32 %70, 0
  br i1 %71, label %72, label %84

72:                                               ; preds = %69
  %73 = load i32, i32* %10, align 4
  %74 = mul nsw i32 %73, 1000
  %75 = load i32, i32* %9, align 4
  %76 = mul nsw i32 %75, 100
  %77 = add nsw i32 %74, %76
  %78 = load i32, i32* %8, align 4
  %79 = mul nsw i32 %78, 10
  %80 = add nsw i32 %77, %79
  %81 = load i32, i32* %7, align 4
  %82 = add nsw i32 %80, %81
  %83 = call i32 (i8*, ...) @printf(i8* getelementptr inbounds ([4 x i8], [4 x i8]* @.str.1, i64 0, i64 0), i32 %82)
  br label %110

84:                                               ; preds = %69
  %85 = load i32, i32* %8, align 4
  %86 = icmp sgt i32 %85, 0
  br i1 %86, label %87, label %96

87:                                               ; preds = %84
  %88 = load i32, i32* %10, align 4
  %89 = mul nsw i32 %88, 100
  %90 = load i32, i32* %9, align 4
  %91 = mul nsw i32 %90, 10
  %92 = add nsw i32 %89, %91
  %93 = load i32, i32* %8, align 4
  %94 = add nsw i32 %92, %93
  %95 = call i32 (i8*, ...) @printf(i8* getelementptr inbounds ([4 x i8], [4 x i8]* @.str.1, i64 0, i64 0), i32 %94)
  br label %109

96:                                               ; preds = %84
  %97 = load i32, i32* %7, align 4
  %98 = icmp sgt i32 %97, 0
  br i1 %98, label %99, label %105

99:                                               ; preds = %96
  %100 = load i32, i32* %10, align 4
  %101 = mul nsw i32 %100, 10
  %102 = load i32, i32* %9, align 4
  %103 = add nsw i32 %101, %102
  %104 = call i32 (i8*, ...) @printf(i8* getelementptr inbounds ([4 x i8], [4 x i8]* @.str.1, i64 0, i64 0), i32 %103)
  br label %108

105:                                              ; preds = %96
  %106 = load i32, i32* %10, align 4
  %107 = call i32 (i8*, ...) @printf(i8* getelementptr inbounds ([4 x i8], [4 x i8]* @.str.1, i64 0, i64 0), i32 %106)
  br label %108

108:                                              ; preds = %105, %99
  br label %109

109:                                              ; preds = %108, %87
  br label %110

110:                                              ; preds = %109, %72
  br label %111

111:                                              ; preds = %110, %54
  ret i32 0
}

declare dso_local i32 @__isoc99_scanf(i8*, ...) #1

declare dso_local i32 @printf(i8*, ...) #1


!llvm.module.flags = !{!0}
!llvm.ident = !{!1}

!0 = !{i32 1, !"wchar_size", i32 4}
!1 = !{!"clang version 10.0.0-4ubuntu1 "}
